target datalayout = "e-m:e-p270:32:32-p271:32:32-p272:64:64-i64:64-i128:128-f80:128-n8:16:32:64-S128"
target triple = "x86_64-pc-linux-gnu"

%struct.register_ct = type { i8, i32, ptr, ptr, ptr, ptr }
%struct._GString = type { ptr, i64, i64 }

@.str = private unnamed_addr constant [6 x i8] c"conv,\00", align 1

; Function Attrs: null_pointer_is_valid sspstrong uwtable
define void @dissector_conversation_init(ptr noundef %0, ptr noundef %1) #1 {
  %3 = alloca ptr, align 8
  %4 = alloca ptr, align 8
  %5 = alloca ptr, align 8
  %6 = alloca ptr, align 8
  %7 = alloca ptr, align 8
  store ptr %0, ptr %3, align 8
  store ptr %1, ptr %4, align 8
  call void @llvm.lifetime.start.p0(i64 8, ptr %5) #16
  %8 = load ptr, ptr %4, align 8
  store ptr %8, ptr %5, align 8
  call void @llvm.lifetime.start.p0(i64 8, ptr %6) #16
  %9 = call ptr @g_string_new(ptr noundef @.str)
  store ptr %9, ptr %6, align 8
  call void @llvm.lifetime.start.p0(i64 8, ptr %7) #16
  store ptr null, ptr %7, align 8
  %10 = load ptr, ptr %6, align 8
  %11 = load ptr, ptr %5, align 8
  %12 = getelementptr inbounds nuw %struct.register_ct, ptr %11, i32 0, i32 1
  %13 = load i32, ptr %12, align 4
  %14 = call ptr @proto_get_protocol_filter_name(i32 noundef %13)
  %15 = call ptr @g_string_append(ptr noundef %10, ptr noundef %14)
  %16 = load ptr, ptr %3, align 8
  %17 = load ptr, ptr %6, align 8
  %18 = getelementptr inbounds nuw %struct._GString, ptr %17, i32 0, i32 0
  %19 = load ptr, ptr %18, align 8
  %20 = load ptr, ptr %6, align 8
  %21 = getelementptr inbounds nuw %struct._GString, ptr %20, i32 0, i32 1
  %22 = load i64, ptr %21, align 8
  %23 = call i32 @strncmp(ptr noundef %16, ptr noundef %19, i64 noundef %22) #17
  %24 = icmp ne i32 %23, 0
  br i1 %24, label %42, label %25

25:                                               ; preds = %2
  %26 = load ptr, ptr %3, align 8
  %27 = load ptr, ptr %6, align 8
  %28 = getelementptr inbounds nuw %struct._GString, ptr %27, i32 0, i32 1
  %29 = load i64, ptr %28, align 8
  %30 = getelementptr i8, ptr %26, i64 %29
  %31 = load i8, ptr %30, align 1
  %32 = sext i8 %31 to i32
  %33 = icmp eq i32 %32, 44
  br i1 %33, label %34, label %41

34:                                               ; preds = %25
  %35 = load ptr, ptr %3, align 8
  %36 = load ptr, ptr %6, align 8
  %37 = getelementptr inbounds nuw %struct._GString, ptr %36, i32 0, i32 1
  %38 = load i64, ptr %37, align 8
  %39 = getelementptr i8, ptr %35, i64 %38
  %40 = getelementptr i8, ptr %39, i64 1
  store ptr %40, ptr %7, align 8
  br label %41

41:                                               ; preds = %34, %25
  br label %42

42:                                               ; preds = %41, %2
  %43 = load ptr, ptr %6, align 8
  %44 = call ptr @g_string_free(ptr noundef %43, i32 noundef 1)
  %45 = load ptr, ptr %5, align 8
  %46 = getelementptr inbounds nuw %struct.register_ct, ptr %45, i32 0, i32 4
  %47 = load ptr, ptr %46, align 8
  %48 = icmp ne ptr %47, null
  br i1 %48, label %49, label %55

49:                                               ; preds = %42
  %50 = load ptr, ptr %5, align 8
  %51 = getelementptr inbounds nuw %struct.register_ct, ptr %50, i32 0, i32 4
  %52 = load ptr, ptr %51, align 8
  %53 = load ptr, ptr %5, align 8
  %54 = load ptr, ptr %7, align 8
  call void %52(ptr noundef %53, ptr noundef %54)
  br label %55

55:                                               ; preds = %49, %42
  call void @llvm.lifetime.end.p0(i64 8, ptr %7) #16
  call void @llvm.lifetime.end.p0(i64 8, ptr %6) #16
  call void @llvm.lifetime.end.p0(i64 8, ptr %5) #16
  ret void
}