; Function Attrs: null_pointer_is_valid sspstrong uwtable
define void @dissector_conversation_init(ptr noundef %0, ptr noundef %1) #1 {
  %3 = tail call ptr @g_string_new(ptr noundef nonnull @.str)
  %4 = getelementptr inbounds nuw i8, ptr %1, i64 4
  %5 = load i32, ptr %4, align 4
  %6 = tail call ptr @proto_get_protocol_filter_name(i32 noundef %5)
  %7 = tail call ptr @g_string_append(ptr noundef %3, ptr noundef %6)
  %8 = load ptr, ptr %3, align 8
  %9 = getelementptr inbounds nuw i8, ptr %3, i64 8
  %10 = load i64, ptr %9, align 8
  %11 = tail call i32 @strncmp(ptr noundef %0, ptr noundef %8, i64 noundef %10) #13
  %.not = icmp eq i32 %11, 0
  br i1 %.not, label %12, label %17

12:                                               ; preds = %2
  %13 = getelementptr i8, ptr %0, i64 %10
  %14 = load i8, ptr %13, align 1
  %15 = icmp eq i8 %14, 44
  %16 = getelementptr i8, ptr %13, i64 1
  %spec.select = select i1 %15, ptr %16, ptr null
  br label %17

17:                                               ; preds = %12, %2
  %.0 = phi ptr [ null, %2 ], [ %spec.select, %12 ]
  %18 = tail call ptr @g_string_free(ptr noundef %3, i32 noundef 1)
  %19 = getelementptr inbounds nuw i8, ptr %1, i64 24
  %20 = load ptr, ptr %19, align 8
  %.not16 = icmp eq ptr %20, null
  br i1 %.not16, label %22, label %21

21:                                               ; preds = %17
  tail call void %20(ptr noundef %1, ptr noundef %.0)
  br label %22

22:                                               ; preds = %21, %17
  ret void
}